target datalayout = "e-m:e-p270:32:32-p271:32:32-p272:64:64-i64:64-i128:128-f80:128-n8:16:32:64-S128"
target triple = "x86_64-pc-linux-gnu"

%struct.mbedtls_ssl_context = type { ptr, i32, i32, i32, i32, i32, ptr, ptr, ptr, ptr, ptr, ptr, ptr, ptr, ptr, ptr, ptr, ptr, ptr, ptr, ptr, ptr, ptr, ptr, ptr, ptr, ptr, ptr, ptr, ptr, ptr, ptr, ptr, i32, i64, i64, i16, i64, i64, i64, i64, i32, i32, i8, i8, i32, i8, ptr, ptr, ptr, ptr, ptr, ptr, ptr, i32, i64, i64, [8 x i8], i16, ptr, ptr, ptr, i64, i32, i64, [12 x i8], [12 x i8], [32 x i8], i8, i8, ptr, ptr, %union.mbedtls_ssl_user_data_t }
%union.mbedtls_ssl_user_data_t = type { i64 }
%struct.mbedtls_ssl_config = type { i32, i32, i8, i8, i8, i8, i8, i8, i8, i8, i8, i8, i16, i8, i8, i8, ptr, i32, ptr, ptr, ptr, ptr, ptr, ptr, ptr, ptr, ptr, ptr, ptr, ptr, ptr, ptr, ptr, ptr, ptr, ptr, ptr, i64, ptr, ptr, ptr, ptr, ptr, ptr, ptr, ptr, %struct.mbedtls_mpi, %struct.mbedtls_mpi, ptr, i64, ptr, i64, ptr, i32, i32, i32, i32, [8 x i8], i32, i32, %union.mbedtls_ssl_user_data_t, ptr, ptr }
%struct.mbedtls_mpi = type { ptr, i16, i16 }

@.str = private unnamed_addr constant [121 x i8] c"generated/home/dtcxzyw/WorkSpace/Projects/compilers/llvm-opt-benchmark/bench/lief/bench_build/mbed_src/library/ssl_msg.c\00", align 1
@.str.121 = private unnamed_addr constant [28 x i8] c"=> parse change cipher spec\00", align 1
@.str.122 = private unnamed_addr constant [24 x i8] c"mbedtls_ssl_read_record\00", align 1
@.str.123 = private unnamed_addr constant [31 x i8] c"bad change cipher spec message\00", align 1
@.str.124 = private unnamed_addr constant [49 x i8] c"switching to new transform spec for inbound data\00", align 1
@.str.125 = private unnamed_addr constant [22 x i8] c"DTLS epoch would wrap\00", align 1
@.str.126 = private unnamed_addr constant [28 x i8] c"<= parse change cipher spec\00", align 1

; Function Attrs: nounwind uwtable
define hidden void @mbedtls_ssl_update_in_pointers(ptr noundef %0) #0 {
  %2 = alloca ptr, align 8
  store ptr %0, ptr %2, align 8, !tbaa !3
  %3 = load ptr, ptr %2, align 8, !tbaa !3
  %4 = getelementptr inbounds nuw %struct.mbedtls_ssl_context, ptr %3, i32 0, i32 0
  %5 = load ptr, ptr %4, align 8, !tbaa !23
  %6 = getelementptr inbounds nuw %struct.mbedtls_ssl_config, ptr %5, i32 0, i32 3
  %7 = load i8, ptr %6, align 1, !tbaa !24
  %8 = zext i8 %7 to i32
  %9 = icmp eq i32 %8, 1
  br i1 %9, label %10, label %34

10:                                               ; preds = %1
  %11 = load ptr, ptr %2, align 8, !tbaa !3
  %12 = getelementptr inbounds nuw %struct.mbedtls_ssl_context, ptr %11, i32 0, i32 27
  %13 = load ptr, ptr %12, align 8, !tbaa !77
  %14 = getelementptr inbounds i8, ptr %13, i64 3
  %15 = load ptr, ptr %2, align 8, !tbaa !3
  %16 = getelementptr inbounds nuw %struct.mbedtls_ssl_context, ptr %15, i32 0, i32 26
  store ptr %14, ptr %16, align 8, !tbaa !44
  %17 = load ptr, ptr %2, align 8, !tbaa !3
  %18 = getelementptr inbounds nuw %struct.mbedtls_ssl_context, ptr %17, i32 0, i32 26
  %19 = load ptr, ptr %18, align 8, !tbaa !44
  %20 = getelementptr inbounds i8, ptr %19, i64 8
  %21 = load ptr, ptr %2, align 8, !tbaa !3
  %22 = getelementptr inbounds nuw %struct.mbedtls_ssl_context, ptr %21, i32 0, i32 28
  store ptr %20, ptr %22, align 8, !tbaa !160
  %23 = load ptr, ptr %2, align 8, !tbaa !3
  %24 = getelementptr inbounds nuw %struct.mbedtls_ssl_context, ptr %23, i32 0, i32 28
  %25 = load ptr, ptr %24, align 8, !tbaa !160
  %26 = load ptr, ptr %2, align 8, !tbaa !3
  %27 = getelementptr inbounds nuw %struct.mbedtls_ssl_context, ptr %26, i32 0, i32 29
  store ptr %25, ptr %27, align 8, !tbaa !161
  %28 = load ptr, ptr %2, align 8, !tbaa !3
  %29 = getelementptr inbounds nuw %struct.mbedtls_ssl_context, ptr %28, i32 0, i32 29
  %30 = load ptr, ptr %29, align 8, !tbaa !161
  %31 = getelementptr inbounds i8, ptr %30, i64 2
  %32 = load ptr, ptr %2, align 8, !tbaa !3
  %33 = getelementptr inbounds nuw %struct.mbedtls_ssl_context, ptr %32, i32 0, i32 30
  store ptr %31, ptr %33, align 8, !tbaa !162
  br label %58

34:                                               ; preds = %1
  %35 = load ptr, ptr %2, align 8, !tbaa !3
  %36 = getelementptr inbounds nuw %struct.mbedtls_ssl_context, ptr %35, i32 0, i32 27
  %37 = load ptr, ptr %36, align 8, !tbaa !77
  %38 = getelementptr inbounds i8, ptr %37, i64 -8
  %39 = load ptr, ptr %2, align 8, !tbaa !3
  %40 = getelementptr inbounds nuw %struct.mbedtls_ssl_context, ptr %39, i32 0, i32 26
  store ptr %38, ptr %40, align 8, !tbaa !44
  %41 = load ptr, ptr %2, align 8, !tbaa !3
  %42 = getelementptr inbounds nuw %struct.mbedtls_ssl_context, ptr %41, i32 0, i32 27
  %43 = load ptr, ptr %42, align 8, !tbaa !77
  %44 = getelementptr inbounds i8, ptr %43, i64 3
  %45 = load ptr, ptr %2, align 8, !tbaa !3
  %46 = getelementptr inbounds nuw %struct.mbedtls_ssl_context, ptr %45, i32 0, i32 29
  store ptr %44, ptr %46, align 8, !tbaa !161
  %47 = load ptr, ptr %2, align 8, !tbaa !3
  %48 = getelementptr inbounds nuw %struct.mbedtls_ssl_context, ptr %47, i32 0, i32 29
  %49 = load ptr, ptr %48, align 8, !tbaa !161
  %50 = load ptr, ptr %2, align 8, !tbaa !3
  %51 = getelementptr inbounds nuw %struct.mbedtls_ssl_context, ptr %50, i32 0, i32 28
  store ptr %49, ptr %51, align 8, !tbaa !160
  %52 = load ptr, ptr %2, align 8, !tbaa !3
  %53 = getelementptr inbounds nuw %struct.mbedtls_ssl_context, ptr %52, i32 0, i32 27
  %54 = load ptr, ptr %53, align 8, !tbaa !77
  %55 = getelementptr inbounds i8, ptr %54, i64 5
  %56 = load ptr, ptr %2, align 8, !tbaa !3
  %57 = getelementptr inbounds nuw %struct.mbedtls_ssl_context, ptr %56, i32 0, i32 30
  store ptr %55, ptr %57, align 8, !tbaa !162
  br label %58

58:                                               ; preds = %34, %10
  %59 = load ptr, ptr %2, align 8, !tbaa !3
  %60 = getelementptr inbounds nuw %struct.mbedtls_ssl_context, ptr %59, i32 0, i32 30
  %61 = load ptr, ptr %60, align 8, !tbaa !162
  %62 = load ptr, ptr %2, align 8, !tbaa !3
  %63 = getelementptr inbounds nuw %struct.mbedtls_ssl_context, ptr %62, i32 0, i32 31
  store ptr %61, ptr %63, align 8, !tbaa !135
  ret void
}

; Function Attrs: nounwind uwtable
define hidden void @mbedtls_ssl_dtls_replay_reset(ptr noundef %0) #0 {
  %2 = alloca ptr, align 8
  store ptr %0, ptr %2, align 8, !tbaa !3
  %3 = load ptr, ptr %2, align 8, !tbaa !3
  %4 = getelementptr inbounds nuw %struct.mbedtls_ssl_context, ptr %3, i32 0, i32 38
  store i64 0, ptr %4, align 8, !tbaa !153
  %5 = load ptr, ptr %2, align 8, !tbaa !3
  %6 = getelementptr inbounds nuw %struct.mbedtls_ssl_context, ptr %5, i32 0, i32 39
  store i64 0, ptr %6, align 8, !tbaa !154
  ret void
}

; Function Attrs: nounwind uwtable
define hidden i32 @mbedtls_ssl_parse_change_cipher_spec(ptr noundef %0) #0 {
  %2 = alloca i32, align 4
  %3 = alloca ptr, align 8
  %4 = alloca i32, align 4
  %5 = alloca i32, align 4
  store ptr %0, ptr %3, align 8, !tbaa !3
  call void @llvm.lifetime.start.p0(i64 4, ptr %4) #11
  store i32 -110, ptr %4, align 4, !tbaa !8
  %6 = load ptr, ptr %3, align 8, !tbaa !3
  call void (ptr, i32, ptr, i32, ptr, ...) @mbedtls_debug_print_msg(ptr noundef %6, i32 noundef 2, ptr noundef @.str, i32 noundef 5211, ptr noundef @.str.121)
  %7 = load ptr, ptr %3, align 8, !tbaa !3
  %8 = call i32 @mbedtls_ssl_read_record(ptr noundef %7, i32 noundef 1)
  store i32 %8, ptr %4, align 4, !tbaa !8
  %9 = icmp ne i32 %8, 0
  br i1 %9, label %10, label %14

10:                                               ; preds = %1
  %11 = load ptr, ptr %3, align 8, !tbaa !3
  %12 = load i32, ptr %4, align 4, !tbaa !8
  call void @mbedtls_debug_print_ret(ptr noundef %11, i32 noundef 1, ptr noundef @.str, i32 noundef 5214, ptr noundef @.str.122, i32 noundef %12)
  %13 = load i32, ptr %4, align 4, !tbaa !8
  store i32 %13, ptr %2, align 4
  store i32 1, ptr %5, align 4
  br label %64

14:                                               ; preds = %1
  %15 = load ptr, ptr %3, align 8, !tbaa !3
  %16 = getelementptr inbounds nuw %struct.mbedtls_ssl_context, ptr %15, i32 0, i32 33
  %17 = load i32, ptr %16, align 8, !tbaa !134
  %18 = icmp ne i32 %17, 20
  br i1 %18, label %19, label %23

19:                                               ; preds = %14
  %20 = load ptr, ptr %3, align 8, !tbaa !3
  call void (ptr, i32, ptr, i32, ptr, ...) @mbedtls_debug_print_msg(ptr noundef %20, i32 noundef 1, ptr noundef @.str, i32 noundef 5219, ptr noundef @.str.123)
  %21 = load ptr, ptr %3, align 8, !tbaa !3
  %22 = call i32 @mbedtls_ssl_send_alert_message(ptr noundef %21, i8 noundef zeroext 2, i8 noundef zeroext 10)
  store i32 -30464, ptr %2, align 4
  store i32 1, ptr %5, align 4
  br label %64

23:                                               ; preds = %14
  %24 = load ptr, ptr %3, align 8, !tbaa !3
  call void (ptr, i32, ptr, i32, ptr, ...) @mbedtls_debug_print_msg(ptr noundef %24, i32 noundef 3, ptr noundef @.str, i32 noundef 5232, ptr noundef @.str.124)
  %25 = load ptr, ptr %3, align 8, !tbaa !3
  %26 = getelementptr inbounds nuw %struct.mbedtls_ssl_context, ptr %25, i32 0, i32 20
  %27 = load ptr, ptr %26, align 8, !tbaa !165
  %28 = load ptr, ptr %3, align 8, !tbaa !3
  %29 = getelementptr inbounds nuw %struct.mbedtls_ssl_context, ptr %28, i32 0, i32 17
  store ptr %27, ptr %29, align 8, !tbaa !36
  %30 = load ptr, ptr %3, align 8, !tbaa !3
  %31 = getelementptr inbounds nuw %struct.mbedtls_ssl_context, ptr %30, i32 0, i32 15
  %32 = load ptr, ptr %31, align 8, !tbaa !166
  %33 = load ptr, ptr %3, align 8, !tbaa !3
  %34 = getelementptr inbounds nuw %struct.mbedtls_ssl_context, ptr %33, i32 0, i32 12
  store ptr %32, ptr %34, align 8, !tbaa !167
  %35 = load ptr, ptr %3, align 8, !tbaa !3
  %36 = getelementptr inbounds nuw %struct.mbedtls_ssl_context, ptr %35, i32 0, i32 0
  %37 = load ptr, ptr %36, align 8, !tbaa !23
  %38 = getelementptr inbounds nuw %struct.mbedtls_ssl_config, ptr %37, i32 0, i32 3
  %39 = load i8, ptr %38, align 1, !tbaa !24
  %40 = zext i8 %39 to i32
  %41 = icmp eq i32 %40, 1
  br i1 %41, label %42, label %53

42:                                               ; preds = %23
  %43 = load ptr, ptr %3, align 8, !tbaa !3
  call void @mbedtls_ssl_dtls_replay_reset(ptr noundef %43)
  %44 = load ptr, ptr %3, align 8, !tbaa !3
  %45 = getelementptr inbounds nuw %struct.mbedtls_ssl_context, ptr %44, i32 0, i32 36
  %46 = load i16, ptr %45, align 8, !tbaa !49
  %47 = add i16 %46, 1
  store i16 %47, ptr %45, align 8, !tbaa !49
  %48 = zext i16 %47 to i32
  %49 = icmp eq i32 %48, 0
  br i1 %49, label %50, label %52

50:                                               ; preds = %42
  %51 = load ptr, ptr %3, align 8, !tbaa !3
  call void (ptr, i32, ptr, i32, ptr, ...) @mbedtls_debug_print_msg(ptr noundef %51, i32 noundef 1, ptr noundef @.str, i32 noundef 5246, ptr noundef @.str.125)
  store i32 -27520, ptr %2, align 4
  store i32 1, ptr %5, align 4
  br label %64

52:                                               ; preds = %42
  br label %57

53:                                               ; preds = %23
  %54 = load ptr, ptr %3, align 8, !tbaa !3
  %55 = getelementptr inbounds nuw %struct.mbedtls_ssl_context, ptr %54, i32 0, i32 26
  %56 = load ptr, ptr %55, align 8, !tbaa !44
  call void @llvm.memset.p0.i64(ptr align 1 %56, i8 0, i64 8, i1 false)
  br label %57

57:                                               ; preds = %53, %52
  %58 = load ptr, ptr %3, align 8, !tbaa !3
  call void @mbedtls_ssl_update_in_pointers(ptr noundef %58)
  %59 = load ptr, ptr %3, align 8, !tbaa !3
  %60 = getelementptr inbounds nuw %struct.mbedtls_ssl_context, ptr %59, i32 0, i32 1
  %61 = load i32, ptr %60, align 8, !tbaa !93
  %62 = add nsw i32 %61, 1
  store i32 %62, ptr %60, align 8, !tbaa !93
  %63 = load ptr, ptr %3, align 8, !tbaa !3
  call void (ptr, i32, ptr, i32, ptr, ...) @mbedtls_debug_print_msg(ptr noundef %63, i32 noundef 2, ptr noundef @.str, i32 noundef 5259, ptr noundef @.str.126)
  store i32 0, ptr %2, align 4
  store i32 1, ptr %5, align 4
  br label %64

64:                                               ; preds = %57, %50, %19, %10
  call void @llvm.lifetime.end.p0(i64 4, ptr %4) #11
  %65 = load i32, ptr %2, align 4
  ret i32 %65
}