; Function Attrs: nounwind uwtable
define hidden i32 @mbedtls_ssl_parse_change_cipher_spec(ptr noundef %0) local_unnamed_addr #0 {
  tail call void (ptr, i32, ptr, i32, ptr, ...) @mbedtls_debug_print_msg(ptr noundef %0, i32 noundef 2, ptr noundef nonnull @.str, i32 noundef 5211, ptr noundef nonnull @.str.121) #19
  %2 = tail call i32 @mbedtls_ssl_read_record(ptr noundef %0, i32 noundef 1)
  %.not = icmp eq i32 %2, 0
  br i1 %.not, label %4, label %3

3:                                                ; preds = %1
  tail call void @mbedtls_debug_print_ret(ptr noundef %0, i32 noundef 1, ptr noundef nonnull @.str, i32 noundef 5214, ptr noundef nonnull @.str.122, i32 noundef %2) #19
  br label %48

4:                                                ; preds = %1
  %5 = getelementptr inbounds nuw i8, ptr %0, i64 248
  %6 = load i32, ptr %5, align 8, !tbaa !136
  %.not22 = icmp eq i32 %6, 20
  br i1 %.not22, label %9, label %7

7:                                                ; preds = %4
  tail call void (ptr, i32, ptr, i32, ptr, ...) @mbedtls_debug_print_msg(ptr noundef nonnull %0, i32 noundef 1, ptr noundef nonnull @.str, i32 noundef 5219, ptr noundef nonnull @.str.123) #19
  %8 = tail call i32 @mbedtls_ssl_send_alert_message(ptr noundef nonnull %0, i8 noundef zeroext 2, i8 noundef zeroext 10)
  br label %48

9:                                                ; preds = %4
  tail call void (ptr, i32, ptr, i32, ptr, ...) @mbedtls_debug_print_msg(ptr noundef nonnull %0, i32 noundef 3, ptr noundef nonnull @.str, i32 noundef 5232, ptr noundef nonnull @.str.124) #19
  %10 = getelementptr inbounds nuw i8, ptr %0, i64 144
  %11 = load ptr, ptr %10, align 8, !tbaa !159
  %12 = getelementptr inbounds nuw i8, ptr %0, i64 120
  store ptr %11, ptr %12, align 8, !tbaa !31
  %13 = getelementptr inbounds nuw i8, ptr %0, i64 104
  %14 = load ptr, ptr %13, align 8, !tbaa !160
  %15 = getelementptr inbounds nuw i8, ptr %0, i64 80
  store ptr %14, ptr %15, align 8, !tbaa !161
  %16 = load ptr, ptr %0, align 8, !tbaa !18
  %17 = getelementptr inbounds nuw i8, ptr %16, i64 9
  %18 = load i8, ptr %17, align 1, !tbaa !19
  %19 = icmp eq i8 %18, 1
  br i1 %19, label %20, label %27

20:                                               ; preds = %9
  %21 = getelementptr inbounds nuw i8, ptr %0, i64 288
  tail call void @llvm.memset.p0.i64(ptr noundef nonnull align 8 dereferenceable(16) %21, i8 0, i64 16, i1 false)
  %22 = getelementptr inbounds nuw i8, ptr %0, i64 272
  %23 = load i16, ptr %22, align 8, !tbaa !43
  %24 = add i16 %23, 1
  store i16 %24, ptr %22, align 8, !tbaa !43
  %25 = icmp eq i16 %24, 0
  br i1 %25, label %26, label %30

26:                                               ; preds = %20
  tail call void (ptr, i32, ptr, i32, ptr, ...) @mbedtls_debug_print_msg(ptr noundef nonnull %0, i32 noundef 1, ptr noundef nonnull @.str, i32 noundef 5246, ptr noundef nonnull @.str.125) #19
  br label %48

27:                                               ; preds = %9
  %28 = getelementptr inbounds nuw i8, ptr %0, i64 192
  %29 = load ptr, ptr %28, align 8, !tbaa !38
  store i64 0, ptr %29, align 1
  %.pre = load ptr, ptr %0, align 8, !tbaa !18
  br label %30

30:                                               ; preds = %20, %27
  %31 = phi ptr [ %16, %20 ], [ %.pre, %27 ]
  %32 = getelementptr inbounds nuw i8, ptr %31, i64 9
  %33 = load i8, ptr %32, align 1, !tbaa !19
  %34 = icmp eq i8 %33, 1
  %35 = getelementptr inbounds nuw i8, ptr %0, i64 200
  %36 = load ptr, ptr %35, align 8, !tbaa !70
  %..i = select i1 %34, i64 3, i64 -8
  %.24.i = select i1 %34, i64 11, i64 3
  %.25.i = select i1 %34, i64 13, i64 5
  %37 = getelementptr inbounds i8, ptr %36, i64 %..i
  %38 = getelementptr inbounds nuw i8, ptr %36, i64 %.24.i
  %39 = getelementptr inbounds nuw i8, ptr %36, i64 %.25.i
  %40 = getelementptr inbounds nuw i8, ptr %0, i64 192
  store ptr %37, ptr %40, align 8, !tbaa !38
  %41 = getelementptr inbounds nuw i8, ptr %0, i64 208
  store ptr %38, ptr %41, align 8, !tbaa !151
  %42 = getelementptr inbounds nuw i8, ptr %0, i64 216
  store ptr %38, ptr %42, align 8, !tbaa !152
  %43 = getelementptr inbounds nuw i8, ptr %0, i64 224
  store ptr %39, ptr %43, align 8, !tbaa !153
  %44 = getelementptr inbounds nuw i8, ptr %0, i64 232
  store ptr %39, ptr %44, align 8, !tbaa !137
  %45 = getelementptr inbounds nuw i8, ptr %0, i64 8
  %46 = load i32, ptr %45, align 8, !tbaa !74
  %47 = add nsw i32 %46, 1
  store i32 %47, ptr %45, align 8, !tbaa !74
  tail call void (ptr, i32, ptr, i32, ptr, ...) @mbedtls_debug_print_msg(ptr noundef nonnull %0, i32 noundef 2, ptr noundef nonnull @.str, i32 noundef 5259, ptr noundef nonnull @.str.126) #19
  br label %48

48:                                               ; preds = %30, %26, %7, %3
  %.0 = phi i32 [ %2, %3 ], [ -30464, %7 ], [ -27520, %26 ], [ 0, %30 ]
  ret i32 %.0
}